; ModuleID = '52/2385.c'
source_filename = "52/2385.c"
target datalayout = "e-m:e-p270:32:32-p271:32:32-p272:64:64-i64:64-f80:128-n8:16:32:64-S128"
target triple = "x86_64-pc-linux-gnu"

@.str = private unnamed_addr constant [6 x i8] c"%d %d\00", align 1
@.str.1 = private unnamed_addr constant [3 x i8] c"%d\00", align 1
@.str.2 = private unnamed_addr constant [4 x i8] c"%d \00", align 1

; Function Attrs: noinline nounwind uwtable
define dso_local i32 @main() #0 {
  %1 = alloca i32, align 4
  %2 = alloca i32, align 4
  %3 = alloca i32, align 4
  %4 = alloca i32, align 4
  %5 = alloca i32, align 4
  %6 = alloca [101 x i32], align 16
  store i32 0, i32* %1, align 4
  %7 = call i32 (i8*, ...) @__isoc99_scanf(i8* getelementptr inbounds ([6 x i8], [6 x i8]* @.str, i64 0, i64 0), i32* %2, i32* %3)
  %8 = load i32, i32* %3, align 4
  store i32 %8, i32* %4, align 4
  br label %9

9:                                                ; preds = %20, %0
  %10 = load i32, i32* %4, align 4
  %11 = load i32, i32* %2, align 4
  %12 = load i32, i32* %3, align 4
  %13 = add nsw i32 %11, %12
  %14 = icmp slt i32 %10, %13
  br i1 %14, label %15, label %23

15:                                               ; preds = %9
  %16 = load i32, i32* %4, align 4
  %17 = sext i32 %16 to i64
  %18 = getelementptr inbounds [101 x i32], [101 x i32]* %6, i64 0, i64 %17
  %19 = call i32 (i8*, ...) @__isoc99_scanf(i8* getelementptr inbounds ([3 x i8], [3 x i8]* @.str.1, i64 0, i64 0), i32* %18)
  br label %20

20:                                               ; preds = %15
  %21 = load i32, i32* %4, align 4
  %22 = add nsw i32 %21, 1
  store i32 %22, i32* %4, align 4
  br label %9

23:                                               ; preds = %9
  %24 = load i32, i32* %2, align 4
  store i32 %24, i32* %4, align 4
  store i32 0, i32* %5, align 4
  br label %25

25:                                               ; preds = %31, %23
  %26 = load i32, i32* %4, align 4
  %27 = load i32, i32* %2, align 4
  %28 = load i32, i32* %3, align 4
  %29 = add nsw i32 %27, %28
  %30 = icmp slt i32 %26, %29
  br i1 %30, label %31, label %43

31:                                               ; preds = %25
  %32 = load i32, i32* %4, align 4
  %33 = sext i32 %32 to i64
  %34 = getelementptr inbounds [101 x i32], [101 x i32]* %6, i64 0, i64 %33
  %35 = load i32, i32* %34, align 4
  %36 = load i32, i32* %5, align 4
  %37 = sext i32 %36 to i64
  %38 = getelementptr inbounds [101 x i32], [101 x i32]* %6, i64 0, i64 %37
  store i32 %35, i32* %38, align 4
  %39 = load i32, i32* %5, align 4
  %40 = add nsw i32 %39, 1
  store i32 %40, i32* %5, align 4
  %41 = load i32, i32* %4, align 4
  %42 = add nsw i32 %41, 1
  store i32 %42, i32* %4, align 4
  br label %25

43:                                               ; preds = %25
  store i32 0, i32* %4, align 4
  br label %44

44:                                               ; preds = %55, %43
  %45 = load i32, i32* %4, align 4
  %46 = load i32, i32* %2, align 4
  %47 = sub nsw i32 %46, 1
  %48 = icmp slt i32 %45, %47
  br i1 %48, label %49, label %58

49:                                               ; preds = %44
  %50 = load i32, i32* %4, align 4
  %51 = sext i32 %50 to i64
  %52 = getelementptr inbounds [101 x i32], [101 x i32]* %6, i64 0, i64 %51
  %53 = load i32, i32* %52, align 4
  %54 = call i32 (i8*, ...) @printf(i8* getelementptr inbounds ([4 x i8], [4 x i8]* @.str.2, i64 0, i64 0), i32 %53)
  br label %55

55:                                               ; preds = %49
  %56 = load i32, i32* %4, align 4
  %57 = add nsw i32 %56, 1
  store i32 %57, i32* %4, align 4
  br label %44

58:                                               ; preds = %44
  %59 = load i32, i32* %2, align 4
  %60 = sub nsw i32 %59, 1
  %61 = sext i32 %60 to i64
  %62 = getelementptr inbounds [101 x i32], [101 x i32]* %6, i64 0, i64 %61
  %63 = load i32, i32* %62, align 4
  %64 = call i32 (i8*, ...) @printf(i8* getelementptr inbounds ([3 x i8], [3 x i8]* @.str.1, i64 0, i64 0), i32 %63)
  ret i32 0
}

declare dso_local i32 @__isoc99_scanf(i8*, ...) #1

declare dso_local i32 @printf(i8*, ...) #1


!llvm.module.flags = !{!0}
!llvm.ident = !{!1}

!0 = !{i32 1, !"wchar_size", i32 4}
!1 = !{!"clang version 10.0.0-4ubuntu1 "}
